; Function Attrs: nounwind uwtable
define internal fastcc noundef ptr @_readCreateConversionStmt() unnamed_addr #0 {
  %1 = alloca i32, align 4
  %2 = tail call noundef ptr @palloc0(i64 noundef 48) #10
  store i32 248, ptr %2, align 4
  call void @llvm.lifetime.start.p0(i64 4, ptr nonnull %1) #10
  %3 = call ptr @pg_strtok(ptr noundef nonnull %1) #10
  %4 = call ptr @nodeRead(ptr noundef null, i32 noundef 0) #10
  %5 = getelementptr inbounds nuw i8, ptr %2, i64 8
  store ptr %4, ptr %5, align 8
  %6 = call ptr @pg_strtok(ptr noundef nonnull %1) #10
  %7 = call ptr @pg_strtok(ptr noundef nonnull %1) #10
  %8 = load i32, ptr %1, align 4
  switch i32 %8, label %18 [
    i32 0, label %nullable_string.exit
    i32 2, label %9
  ]

9:                                                ; preds = %0
  %10 = load i8, ptr %7, align 1
  %11 = icmp eq i8 %10, 34
  br i1 %11, label %12, label %18

12:                                               ; preds = %9
  %13 = getelementptr inbounds nuw i8, ptr %7, i64 1
  %14 = load i8, ptr %13, align 1
  %15 = icmp eq i8 %14, 34
  br i1 %15, label %16, label %18

16:                                               ; preds = %12
  %17 = call ptr @pstrdup(ptr noundef nonnull @.str.326) #10
  br label %nullable_string.exit

18:                                               ; preds = %12, %9, %0
  %19 = call ptr @debackslash(ptr noundef %7, i32 noundef %8) #10
  br label %nullable_string.exit

nullable_string.exit:                             ; preds = %0, %16, %18
  %.0.i = phi ptr [ %17, %16 ], [ %19, %18 ], [ null, %0 ]
  %20 = getelementptr inbounds nuw i8, ptr %2, i64 16
  store ptr %.0.i, ptr %20, align 8
  %21 = call ptr @pg_strtok(ptr noundef nonnull %1) #10
  %22 = call ptr @pg_strtok(ptr noundef nonnull %1) #10
  %23 = load i32, ptr %1, align 4
  switch i32 %23, label %33 [
    i32 0, label %nullable_string.exit10
    i32 2, label %24
  ]

24:                                               ; preds = %nullable_string.exit
  %25 = load i8, ptr %22, align 1
  %26 = icmp eq i8 %25, 34
  br i1 %26, label %27, label %33

27:                                               ; preds = %24
  %28 = getelementptr inbounds nuw i8, ptr %22, i64 1
  %29 = load i8, ptr %28, align 1
  %30 = icmp eq i8 %29, 34
  br i1 %30, label %31, label %33

31:                                               ; preds = %27
  %32 = call ptr @pstrdup(ptr noundef nonnull @.str.326) #10
  br label %nullable_string.exit10

33:                                               ; preds = %27, %24, %nullable_string.exit
  %34 = call ptr @debackslash(ptr noundef %22, i32 noundef %23) #10
  br label %nullable_string.exit10

nullable_string.exit10:                           ; preds = %nullable_string.exit, %31, %33
  %.0.i9 = phi ptr [ %32, %31 ], [ %34, %33 ], [ null, %nullable_string.exit ]
  %35 = getelementptr inbounds nuw i8, ptr %2, i64 24
  store ptr %.0.i9, ptr %35, align 8
  %36 = call ptr @pg_strtok(ptr noundef nonnull %1) #10
  %37 = call ptr @nodeRead(ptr noundef null, i32 noundef 0) #10
  %38 = getelementptr inbounds nuw i8, ptr %2, i64 32
  store ptr %37, ptr %38, align 8
  %39 = call ptr @pg_strtok(ptr noundef nonnull %1) #10
  %40 = call ptr @pg_strtok(ptr noundef nonnull %1) #10
  %41 = load i8, ptr %40, align 1
  %42 = icmp eq i8 %41, 116
  %43 = getelementptr inbounds nuw i8, ptr %2, i64 40
  %44 = zext i1 %42 to i8
  store i8 %44, ptr %43, align 8
  call void @llvm.lifetime.end.p0(i64 4, ptr nonnull %1) #10
  ret ptr %2
}